target datalayout = "e-m:e-p270:32:32-p271:32:32-p272:64:64-i64:64-i128:128-f80:128-n8:16:32:64-S128"
target triple = "x86_64-pc-linux-gnu"

%struct.Parser = type { ptr, ptr, i32, i32, i32, ptr, ptr, ptr, i32, i32, ptr, i32, ptr, i32, i32, i32, i32, i32, %struct.growable_comment_array, ptr, i32, i32, i32 }
%struct.growable_comment_array = type { ptr, i64, i64 }
%struct.Token = type { i32, ptr, i32, i32, i32, i32, i32, ptr, ptr }

@PyExc_SyntaxError = external global ptr, align 8
@.str.3 = private unnamed_addr constant [14 x i8] c"expected '%s'\00", align 1

; Function Attrs: nounwind uwtable
define hidden ptr @_PyPegen_expect_forced_token(ptr noundef %0, i32 noundef %1, ptr noundef %2) #0 {
  %4 = alloca ptr, align 8
  %5 = alloca ptr, align 8
  %6 = alloca i32, align 4
  %7 = alloca ptr, align 8
  %8 = alloca ptr, align 8
  %9 = alloca i32, align 4
  store ptr %0, ptr %5, align 8, !tbaa !4
  store i32 %1, ptr %6, align 4, !tbaa !18
  store ptr %2, ptr %7, align 8, !tbaa !21
  %10 = load ptr, ptr %5, align 8, !tbaa !4
  %11 = getelementptr inbounds nuw %struct.Parser, ptr %10, i32 0, i32 15
  %12 = load i32, ptr %11, align 8, !tbaa !86
  %13 = icmp eq i32 %12, 1
  br i1 %13, label %14, label %15

14:                                               ; preds = %3
  store ptr null, ptr %4, align 8
  br label %74

15:                                               ; preds = %3
  %16 = load ptr, ptr %5, align 8, !tbaa !4
  %17 = getelementptr inbounds nuw %struct.Parser, ptr %16, i32 0, i32 2
  %18 = load i32, ptr %17, align 8, !tbaa !38
  %19 = load ptr, ptr %5, align 8, !tbaa !4
  %20 = getelementptr inbounds nuw %struct.Parser, ptr %19, i32 0, i32 3
  %21 = load i32, ptr %20, align 4, !tbaa !59
  %22 = icmp eq i32 %18, %21
  br i1 %22, label %23, label %31

23:                                               ; preds = %15
  %24 = load ptr, ptr %5, align 8, !tbaa !4
  %25 = call i32 @_PyPegen_fill_token(ptr noundef %24)
  %26 = icmp slt i32 %25, 0
  br i1 %26, label %27, label %30

27:                                               ; preds = %23
  %28 = load ptr, ptr %5, align 8, !tbaa !4
  %29 = getelementptr inbounds nuw %struct.Parser, ptr %28, i32 0, i32 15
  store i32 1, ptr %29, align 8, !tbaa !86
  store ptr null, ptr %4, align 8
  br label %74

30:                                               ; preds = %23
  br label %31

31:                                               ; preds = %30, %15
  call void @llvm.lifetime.start.p0(i64 8, ptr %8) #10
  %32 = load ptr, ptr %5, align 8, !tbaa !4
  %33 = getelementptr inbounds nuw %struct.Parser, ptr %32, i32 0, i32 1
  %34 = load ptr, ptr %33, align 8, !tbaa !40
  %35 = load ptr, ptr %5, align 8, !tbaa !4
  %36 = getelementptr inbounds nuw %struct.Parser, ptr %35, i32 0, i32 2
  %37 = load i32, ptr %36, align 8, !tbaa !38
  %38 = sext i32 %37 to i64
  %39 = getelementptr ptr, ptr %34, i64 %38
  %40 = load ptr, ptr %39, align 8, !tbaa !4
  store ptr %40, ptr %8, align 8, !tbaa !4
  %41 = load ptr, ptr %8, align 8, !tbaa !4
  %42 = getelementptr inbounds nuw %struct.Token, ptr %41, i32 0, i32 0
  %43 = load i32, ptr %42, align 8, !tbaa !70
  %44 = load i32, ptr %6, align 4, !tbaa !18
  %45 = icmp ne i32 %43, %44
  br i1 %45, label %46, label %67

46:                                               ; preds = %31
  %47 = load ptr, ptr %5, align 8, !tbaa !4
  %48 = load ptr, ptr @PyExc_SyntaxError, align 8, !tbaa !19
  %49 = load ptr, ptr %8, align 8, !tbaa !4
  %50 = getelementptr inbounds nuw %struct.Token, ptr %49, i32 0, i32 3
  %51 = load i32, ptr %50, align 4, !tbaa !78
  %52 = sext i32 %51 to i64
  %53 = load ptr, ptr %8, align 8, !tbaa !4
  %54 = getelementptr inbounds nuw %struct.Token, ptr %53, i32 0, i32 4
  %55 = load i32, ptr %54, align 8, !tbaa !81
  %56 = sext i32 %55 to i64
  %57 = load ptr, ptr %8, align 8, !tbaa !4
  %58 = getelementptr inbounds nuw %struct.Token, ptr %57, i32 0, i32 5
  %59 = load i32, ptr %58, align 4, !tbaa !83
  %60 = sext i32 %59 to i64
  %61 = load ptr, ptr %8, align 8, !tbaa !4
  %62 = getelementptr inbounds nuw %struct.Token, ptr %61, i32 0, i32 6
  %63 = load i32, ptr %62, align 8, !tbaa !84
  %64 = sext i32 %63 to i64
  %65 = load ptr, ptr %7, align 8, !tbaa !21
  %66 = call ptr (ptr, ptr, i64, i64, i64, i64, ptr, ...) @RAISE_ERROR_KNOWN_LOCATION(ptr noundef %47, ptr noundef %48, i64 noundef %52, i64 noundef %56, i64 noundef %60, i64 noundef %64, ptr noundef @.str.3, ptr noundef %65)
  store ptr null, ptr %4, align 8
  store i32 1, ptr %9, align 4
  br label %73

67:                                               ; preds = %31
  %68 = load ptr, ptr %5, align 8, !tbaa !4
  %69 = getelementptr inbounds nuw %struct.Parser, ptr %68, i32 0, i32 2
  %70 = load i32, ptr %69, align 8, !tbaa !38
  %71 = add i32 %70, 1
  store i32 %71, ptr %69, align 8, !tbaa !38
  %72 = load ptr, ptr %8, align 8, !tbaa !4
  store ptr %72, ptr %4, align 8
  store i32 1, ptr %9, align 4
  br label %73

73:                                               ; preds = %67, %46
  call void @llvm.lifetime.end.p0(i64 8, ptr %8) #10
  br label %74

74:                                               ; preds = %73, %27, %14
  %75 = load ptr, ptr %4, align 8
  ret ptr %75
}