; Function Attrs: nounwind uwtable
define hidden noundef ptr @_PyPegen_expect_forced_token(ptr noundef %0, i32 noundef %1, ptr noundef %2) local_unnamed_addr #1 {
  %4 = getelementptr inbounds nuw i8, ptr %0, i64 96
  %5 = load i32, ptr %4, align 8, !tbaa !87
  %6 = icmp eq i32 %5, 1
  br i1 %6, label %41, label %7

7:                                                ; preds = %3
  %8 = getelementptr inbounds nuw i8, ptr %0, i64 16
  %9 = load i32, ptr %8, align 8, !tbaa !33
  %10 = getelementptr inbounds nuw i8, ptr %0, i64 20
  %11 = load i32, ptr %10, align 4, !tbaa !62
  %12 = icmp eq i32 %9, %11
  br i1 %12, label %13, label %17

13:                                               ; preds = %7
  %14 = tail call i32 @_PyPegen_fill_token(ptr noundef nonnull %0)
  %15 = icmp slt i32 %14, 0
  br i1 %15, label %16, label %._crit_edge

._crit_edge:                                      ; preds = %13
  %.pre = load i32, ptr %8, align 8, !tbaa !33
  br label %17

16:                                               ; preds = %13
  store i32 1, ptr %4, align 8, !tbaa !87
  br label %41

17:                                               ; preds = %._crit_edge, %7
  %18 = phi i32 [ %.pre, %._crit_edge ], [ %9, %7 ]
  %19 = getelementptr inbounds nuw i8, ptr %0, i64 8
  %20 = load ptr, ptr %19, align 8, !tbaa !35
  %21 = sext i32 %18 to i64
  %22 = getelementptr ptr, ptr %20, i64 %21
  %23 = load ptr, ptr %22, align 8, !tbaa !36
  %24 = load i32, ptr %23, align 8, !tbaa !71
  %.not = icmp eq i32 %24, %1
  br i1 %.not, label %39, label %25

25:                                               ; preds = %17
  %26 = load ptr, ptr @PyExc_SyntaxError, align 8, !tbaa !19
  %27 = getelementptr inbounds nuw i8, ptr %23, i64 20
  %28 = load i32, ptr %27, align 4, !tbaa !79
  %29 = sext i32 %28 to i64
  %30 = getelementptr inbounds nuw i8, ptr %23, i64 24
  %31 = load i32, ptr %30, align 8, !tbaa !83
  %32 = sext i32 %31 to i64
  %33 = getelementptr inbounds nuw i8, ptr %23, i64 28
  %34 = load i32, ptr %33, align 4, !tbaa !84
  %35 = sext i32 %34 to i64
  %36 = getelementptr inbounds nuw i8, ptr %23, i64 32
  %37 = load i32, ptr %36, align 8, !tbaa !85
  %38 = sext i32 %37 to i64
  tail call void (ptr, ptr, i64, i64, i64, i64, ptr, ...) @RAISE_ERROR_KNOWN_LOCATION(ptr noundef nonnull %0, ptr noundef %26, i64 noundef %29, i64 noundef %32, i64 noundef %35, i64 noundef %38, ptr noundef nonnull @.str.3, ptr noundef %2)
  br label %41

39:                                               ; preds = %17
  %40 = add i32 %18, 1
  store i32 %40, ptr %8, align 8, !tbaa !33
  br label %41

41:                                               ; preds = %25, %39, %3, %16
  %.0 = phi ptr [ null, %16 ], [ null, %3 ], [ null, %25 ], [ %23, %39 ]
  ret ptr %.0
}